target datalayout = "e-m:e-p270:32:32-p271:32:32-p272:64:64-i64:64-i128:128-f80:128-n8:16:32:64-S128"
target triple = "x86_64-pc-linux-gnu"

; Function Attrs: nounwind uwtable
define internal void @UInt8_To_Float32(ptr noundef %0, i32 noundef %1, ptr noundef %2, i32 noundef %3, i32 noundef %4, ptr noundef %5) #0 {
  %7 = alloca ptr, align 8
  %8 = alloca i32, align 4
  %9 = alloca ptr, align 8
  %10 = alloca i32, align 4
  %11 = alloca i32, align 4
  %12 = alloca ptr, align 8
  %13 = alloca ptr, align 8
  %14 = alloca ptr, align 8
  %15 = alloca float, align 4
  store ptr %0, ptr %7, align 8, !tbaa !70
  store i32 %1, ptr %8, align 4, !tbaa !71
  store ptr %2, ptr %9, align 8, !tbaa !70
  store i32 %3, ptr %10, align 4, !tbaa !71
  store i32 %4, ptr %11, align 4, !tbaa !71
  store ptr %5, ptr %12, align 8, !tbaa !73
  call void @llvm.lifetime.start.p0(i64 8, ptr %13) #4
  %16 = load ptr, ptr %9, align 8, !tbaa !70
  store ptr %16, ptr %13, align 8, !tbaa !87
  call void @llvm.lifetime.start.p0(i64 8, ptr %14) #4
  %17 = load ptr, ptr %7, align 8, !tbaa !70
  store ptr %17, ptr %14, align 8, !tbaa !75
  br label %18

18:                                               ; preds = %22, %6
  %19 = load i32, ptr %11, align 4, !tbaa !71
  %20 = add i32 %19, -1
  store i32 %20, ptr %11, align 4, !tbaa !71
  %21 = icmp ne i32 %19, 0
  br i1 %21, label %22, label %39

22:                                               ; preds = %18
  call void @llvm.lifetime.start.p0(i64 4, ptr %15) #4
  %23 = load ptr, ptr %13, align 8, !tbaa !87
  %24 = load i8, ptr %23, align 1, !tbaa !89
  %25 = zext i8 %24 to i32
  %26 = sub nsw i32 %25, 128
  %27 = sitofp i32 %26 to float
  %28 = fmul float %27, 7.812500e-03
  store float %28, ptr %15, align 4, !tbaa !79
  %29 = load float, ptr %15, align 4, !tbaa !79
  %30 = load ptr, ptr %14, align 8, !tbaa !75
  store float %29, ptr %30, align 4, !tbaa !79
  %31 = load i32, ptr %10, align 4, !tbaa !71
  %32 = load ptr, ptr %13, align 8, !tbaa !87
  %33 = sext i32 %31 to i64
  %34 = getelementptr inbounds i8, ptr %32, i64 %33
  store ptr %34, ptr %13, align 8, !tbaa !87
  %35 = load i32, ptr %8, align 4, !tbaa !71
  %36 = load ptr, ptr %14, align 8, !tbaa !75
  %37 = sext i32 %35 to i64
  %38 = getelementptr inbounds float, ptr %36, i64 %37
  store ptr %38, ptr %14, align 8, !tbaa !75
  call void @llvm.lifetime.end.p0(i64 4, ptr %15) #4
  br label %18, !llvm.loop !137

39:                                               ; preds = %18
  call void @llvm.lifetime.end.p0(i64 8, ptr %14) #4
  call void @llvm.lifetime.end.p0(i64 8, ptr %13) #4
  ret void
}